; Function Attrs: mustprogress uwtable
define noundef zeroext i1 @_ZNK4cvc58internal8TypeNode11isMaybeKindENS0_4kind6Kind_tE(ptr noundef nonnull readonly align 8 captures(none) dereferenceable(8) %0, i32 noundef %1) local_unnamed_addr #4 align 2 {
  %3 = load ptr, ptr %0, align 8, !tbaa !3
  %4 = getelementptr inbounds nuw i8, ptr %3, i64 8
  %5 = load i64, ptr %4, align 8
  %6 = trunc i64 %5 to i32
  %7 = and i32 %6, 1023
  %8 = icmp eq i32 %7, %1
  br i1 %8, label %17, label %9

9:                                                ; preds = %2
  %10 = icmp eq i32 %7, 15
  br i1 %10, label %11, label %17

11:                                               ; preds = %9
  %12 = tail call noundef nonnull align 4 dereferenceable(4) ptr @_ZNK4cvc58internal4expr9NodeValue8getConstINS0_12AbstractTypeEEERKT_v(ptr noundef nonnull align 8 dereferenceable(24) %3)
  %13 = tail call noundef i32 @_ZNK4cvc58internal12AbstractType7getKindEv(ptr noundef nonnull align 4 dereferenceable(4) %12)
  %14 = icmp eq i32 %13, 15
  %15 = icmp eq i32 %13, %1
  %16 = or i1 %14, %15
  br label %17

17:                                               ; preds = %9, %2, %11
  %.0 = phi i1 [ %16, %11 ], [ true, %2 ], [ false, %9 ]
  ret i1 %.0
}